#include <math.h>
#include <stdio.h>
#include <stdlib.h>
#include <string.h>
#include <iostream>
using namespace std;



int main()
{
    int n,i,del,j,m=0;
    cin>>n;
    int a[n];//??
    for(i=0;i<n;i++)
    {
        cin>>a[i];
    }
    cin>>del;//????del
    for(i=0;i<n;i++)
    {
        if(a[i]!=del&&m==1) {cout<<" ";m=0;}//???????m??
        if(a[i]!=del)
        {
            cout<<a[i];
            if(m==0) m=1;//m??????????
        }
        else{continue;}//?????????
        
    }

    return 0;
}